target datalayout = "e-m:e-p270:32:32-p271:32:32-p272:64:64-i64:64-i128:128-f80:128-n8:16:32:64-S128"
target triple = "x86_64-pc-linux-gnu"

%struct._xmlNode = type { ptr, i32, ptr, ptr, ptr, ptr, ptr, ptr, ptr, ptr, ptr, ptr, ptr, ptr, i16, i16 }

; Function Attrs: nounwind uwtable
define internal i64 @php_dom_node_count_list_size_xmlNode(ptr noundef %0) #0 {
  %2 = alloca ptr, align 8
  %3 = alloca i64, align 8
  store ptr %0, ptr %2, align 8
  store i64 0, ptr %3, align 8
  br label %4

4:                                                ; preds = %7, %1
  %5 = load ptr, ptr %2, align 8
  %6 = icmp ne ptr %5, null
  br i1 %6, label %7, label %13

7:                                                ; preds = %4
  %8 = load i64, ptr %3, align 8
  %9 = add i64 %8, 1
  store i64 %9, ptr %3, align 8
  %10 = load ptr, ptr %2, align 8
  %11 = getelementptr inbounds %struct._xmlNode, ptr %10, i32 0, i32 6
  %12 = load ptr, ptr %11, align 8
  store ptr %12, ptr %2, align 8
  br label %4

13:                                               ; preds = %4
  %14 = load i64, ptr %3, align 8
  ret i64 %14
}

; Function Attrs: nounwind uwtable
define internal zeroext i1 @php_dom_node_list_equality_check_ordered_xmlNode(ptr noundef %0, ptr noundef %1) #0 {
  %3 = alloca i1, align 1
  %4 = alloca ptr, align 8
  %5 = alloca ptr, align 8
  %6 = alloca i64, align 8
  %7 = alloca i64, align 8
  store ptr %0, ptr %4, align 8
  store ptr %1, ptr %5, align 8
  %8 = load ptr, ptr %4, align 8
  %9 = call i64 @php_dom_node_count_list_size_xmlNode(ptr noundef %8)
  store i64 %9, ptr %6, align 8
  %10 = load i64, ptr %6, align 8
  %11 = load ptr, ptr %5, align 8
  %12 = call i64 @php_dom_node_count_list_size_xmlNode(ptr noundef %11)
  %13 = icmp ne i64 %10, %12
  br i1 %13, label %14, label %15

14:                                               ; preds = %2
  store i1 false, ptr %3, align 1
  br label %36

15:                                               ; preds = %2
  store i64 0, ptr %7, align 8
  br label %16

16:                                               ; preds = %32, %15
  %17 = load i64, ptr %7, align 8
  %18 = load i64, ptr %6, align 8
  %19 = icmp ult i64 %17, %18
  br i1 %19, label %20, label %35

20:                                               ; preds = %16
  %21 = load ptr, ptr %4, align 8
  %22 = load ptr, ptr %5, align 8
  %23 = call zeroext i1 @php_dom_node_is_equal_node(ptr noundef %21, ptr noundef %22)
  br i1 %23, label %25, label %24

24:                                               ; preds = %20
  store i1 false, ptr %3, align 1
  br label %36

25:                                               ; preds = %20
  %26 = load ptr, ptr %4, align 8
  %27 = getelementptr inbounds %struct._xmlNode, ptr %26, i32 0, i32 6
  %28 = load ptr, ptr %27, align 8
  store ptr %28, ptr %4, align 8
  %29 = load ptr, ptr %5, align 8
  %30 = getelementptr inbounds %struct._xmlNode, ptr %29, i32 0, i32 6
  %31 = load ptr, ptr %30, align 8
  store ptr %31, ptr %5, align 8
  br label %32

32:                                               ; preds = %25
  %33 = load i64, ptr %7, align 8
  %34 = add i64 %33, 1
  store i64 %34, ptr %7, align 8
  br label %16

35:                                               ; preds = %16
  store i1 true, ptr %3, align 1
  br label %36

36:                                               ; preds = %35, %24, %14
  %37 = load i1, ptr %3, align 1
  ret i1 %37
}