; Function Attrs: nounwind uwtable
define internal fastcc noundef zeroext i1 @php_dom_node_list_equality_check_ordered_xmlNode(ptr noundef %0, ptr noundef %1) unnamed_addr #0 {
  %.not4.i = icmp eq ptr %0, null
  br i1 %.not4.i, label %php_dom_node_count_list_size_xmlNode.exit, label %.lr.ph.i

.lr.ph.i:                                         ; preds = %2, %.lr.ph.i
  %.06.i = phi i64 [ %3, %.lr.ph.i ], [ 0, %2 ]
  %.035.i = phi ptr [ %5, %.lr.ph.i ], [ %0, %2 ]
  %3 = add i64 %.06.i, 1
  %4 = getelementptr inbounds i8, ptr %.035.i, i64 48
  %5 = load ptr, ptr %4, align 8
  %.not.i = icmp eq ptr %5, null
  br i1 %.not.i, label %php_dom_node_count_list_size_xmlNode.exit, label %.lr.ph.i

php_dom_node_count_list_size_xmlNode.exit:        ; preds = %.lr.ph.i, %2
  %.0.lcssa.i = phi i64 [ 0, %2 ], [ %3, %.lr.ph.i ]
  %.not4.i14 = icmp eq ptr %1, null
  br i1 %.not4.i14, label %php_dom_node_count_list_size_xmlNode.exit20, label %.lr.ph.i15

.lr.ph.i15:                                       ; preds = %php_dom_node_count_list_size_xmlNode.exit, %.lr.ph.i15
  %.06.i16 = phi i64 [ %6, %.lr.ph.i15 ], [ 0, %php_dom_node_count_list_size_xmlNode.exit ]
  %.035.i17 = phi ptr [ %8, %.lr.ph.i15 ], [ %1, %php_dom_node_count_list_size_xmlNode.exit ]
  %6 = add i64 %.06.i16, 1
  %7 = getelementptr inbounds i8, ptr %.035.i17, i64 48
  %8 = load ptr, ptr %7, align 8
  %.not.i18 = icmp eq ptr %8, null
  br i1 %.not.i18, label %php_dom_node_count_list_size_xmlNode.exit20, label %.lr.ph.i15

php_dom_node_count_list_size_xmlNode.exit20:      ; preds = %.lr.ph.i15, %php_dom_node_count_list_size_xmlNode.exit
  %.0.lcssa.i19 = phi i64 [ 0, %php_dom_node_count_list_size_xmlNode.exit ], [ %6, %.lr.ph.i15 ]
  %.not = icmp eq i64 %.0.lcssa.i, %.0.lcssa.i19
  br i1 %.not, label %.preheader, label %.loopexit

.preheader:                                       ; preds = %php_dom_node_count_list_size_xmlNode.exit20
  %.not27 = icmp eq i64 %.0.lcssa.i, 0
  br i1 %.not27, label %.loopexit, label %.lr.ph

.lr.ph:                                           ; preds = %.preheader, %10
  %.024 = phi i64 [ %15, %10 ], [ 0, %.preheader ]
  %.01123 = phi ptr [ %14, %10 ], [ %1, %.preheader ]
  %.01222 = phi ptr [ %12, %10 ], [ %0, %.preheader ]
  %9 = tail call fastcc zeroext i1 @php_dom_node_is_equal_node(ptr noundef %.01222, ptr noundef %.01123)
  br i1 %9, label %10, label %.loopexit

10:                                               ; preds = %.lr.ph
  %11 = getelementptr inbounds i8, ptr %.01222, i64 48
  %12 = load ptr, ptr %11, align 8
  %13 = getelementptr inbounds i8, ptr %.01123, i64 48
  %14 = load ptr, ptr %13, align 8
  %15 = add nuw i64 %.024, 1
  %exitcond.not = icmp eq i64 %15, %.0.lcssa.i
  br i1 %exitcond.not, label %.loopexit, label %.lr.ph

.loopexit:                                        ; preds = %.lr.ph, %10, %.preheader, %php_dom_node_count_list_size_xmlNode.exit20
  %.010 = phi i1 [ false, %php_dom_node_count_list_size_xmlNode.exit20 ], [ true, %.preheader ], [ %9, %10 ], [ %9, %.lr.ph ]
  ret i1 %.010
}